target datalayout = "e-m:e-p270:32:32-p271:32:32-p272:64:64-i64:64-i128:128-f80:128-n8:16:32:64-S128"
target triple = "x86_64-unknown-linux-gnu"

%struct.__va_list_tag = type { i32, i32, ptr, ptr }

; Function Attrs: mustprogress uwtable
define dso_local noundef zeroext i1 @_ZN2EA8UnitTest4Test15VerifyFormattedEbPKcz(ptr noundef nonnull align 8 dereferenceable(80) %this, i1 noundef zeroext %bValue, ptr noundef %pFormat, ...) unnamed_addr #2 align 2 {
entry:
  %retval = alloca i1, align 1
  %this.addr = alloca ptr, align 8
  %bValue.addr = alloca i8, align 1
  %pFormat.addr = alloca ptr, align 8
  %buffer = alloca [384 x i8], align 16
  %arguments = alloca [1 x %struct.__va_list_tag], align 16
  %nReturnValue = alloca i32, align 4
  store ptr %this, ptr %this.addr, align 8
  %frombool = zext i1 %bValue to i8
  store i8 %frombool, ptr %bValue.addr, align 1
  store ptr %pFormat, ptr %pFormat.addr, align 8
  %this1 = load ptr, ptr %this.addr, align 8
  %0 = load i8, ptr %bValue.addr, align 1
  %tobool = trunc i8 %0 to i1
  br i1 %tobool, label %if.end, label %if.then

if.then:                                          ; preds = %entry
  %arraydecay = getelementptr inbounds [1 x %struct.__va_list_tag], ptr %arguments, i64 0, i64 0
  call void @llvm.va_start(ptr %arraydecay)
  %arraydecay2 = getelementptr inbounds [384 x i8], ptr %buffer, i64 0, i64 0
  %1 = load ptr, ptr %pFormat.addr, align 8
  %arraydecay3 = getelementptr inbounds [1 x %struct.__va_list_tag], ptr %arguments, i64 0, i64 0
  %call = call noundef i32 @_ZN2EA4StdC9VsnprintfEPcmPKcP13__va_list_tag(ptr noundef %arraydecay2, i64 noundef 384, ptr noundef %1, ptr noundef %arraydecay3)
  store i32 %call, ptr %nReturnValue, align 4
  %arraydecay4 = getelementptr inbounds [1 x %struct.__va_list_tag], ptr %arguments, i64 0, i64 0
  call void @llvm.va_end(ptr %arraydecay4)
  %2 = load i32, ptr %nReturnValue, align 4
  %cmp = icmp sge i32 %2, 0
  br i1 %cmp, label %land.lhs.true, label %if.else

land.lhs.true:                                    ; preds = %if.then
  %3 = load i32, ptr %nReturnValue, align 4
  %cmp5 = icmp slt i32 %3, 384
  br i1 %cmp5, label %if.then6, label %if.else

if.then6:                                         ; preds = %land.lhs.true
  %4 = load i8, ptr %bValue.addr, align 1
  %tobool7 = trunc i8 %4 to i1
  %arraydecay8 = getelementptr inbounds [384 x i8], ptr %buffer, i64 0, i64 0
  %vtable = load ptr, ptr %this1, align 8
  %vfn = getelementptr inbounds ptr, ptr %vtable, i64 9
  %5 = load ptr, ptr %vfn, align 8
  %call9 = call noundef zeroext i1 %5(ptr noundef nonnull align 8 dereferenceable(80) %this1, i1 noundef zeroext %tobool7, ptr noundef %arraydecay8)
  store i1 %call9, ptr %retval, align 1
  br label %return

if.else:                                          ; preds = %land.lhs.true, %if.then
  %6 = load i8, ptr %bValue.addr, align 1
  %tobool10 = trunc i8 %6 to i1
  %7 = load ptr, ptr %pFormat.addr, align 8
  %vtable11 = load ptr, ptr %this1, align 8
  %vfn12 = getelementptr inbounds ptr, ptr %vtable11, i64 9
  %8 = load ptr, ptr %vfn12, align 8
  %call13 = call noundef zeroext i1 %8(ptr noundef nonnull align 8 dereferenceable(80) %this1, i1 noundef zeroext %tobool10, ptr noundef %7)
  store i1 %call13, ptr %retval, align 1
  br label %return

if.end:                                           ; preds = %entry
  store i1 true, ptr %retval, align 1
  br label %return

return:                                           ; preds = %if.end, %if.else, %if.then6
  %9 = load i1, ptr %retval, align 1
  ret i1 %9
}