; Function Attrs: mustprogress uwtable
define dso_local noundef zeroext i1 @_ZN2EA8UnitTest4Test15VerifyFormattedEbPKcz(ptr noundef nonnull align 8 dereferenceable(80) %this, i1 noundef zeroext %bValue, ptr noundef %pFormat, ...) unnamed_addr #0 align 2 {
entry:
  %buffer = alloca [384 x i8], align 16
  %arguments = alloca [1 x %struct.__va_list_tag], align 16
  br i1 %bValue, label %return, label %if.then

if.then:                                          ; preds = %entry
  call void @llvm.va_start(ptr nonnull %arguments)
  %call = call noundef i32 @_ZN2EA4StdC9VsnprintfEPcmPKcP13__va_list_tag(ptr noundef nonnull %buffer, i64 noundef 384, ptr noundef %pFormat, ptr noundef nonnull %arguments)
  call void @llvm.va_end(ptr nonnull %arguments)
  %or.cond = icmp ult i32 %call, 384
  %vtable = load ptr, ptr %this, align 8
  %vfn = getelementptr inbounds i8, ptr %vtable, i64 72
  %0 = load ptr, ptr %vfn, align 8
  br i1 %or.cond, label %if.then6, label %if.else

if.then6:                                         ; preds = %if.then
  %call9 = call noundef zeroext i1 %0(ptr noundef nonnull align 8 dereferenceable(80) %this, i1 noundef zeroext false, ptr noundef nonnull %buffer)
  br label %return

if.else:                                          ; preds = %if.then
  %call13 = call noundef zeroext i1 %0(ptr noundef nonnull align 8 dereferenceable(80) %this, i1 noundef zeroext false, ptr noundef %pFormat)
  br label %return

return:                                           ; preds = %entry, %if.else, %if.then6
  %retval.0 = phi i1 [ %call9, %if.then6 ], [ %call13, %if.else ], [ true, %entry ]
  ret i1 %retval.0
}